Certificate:
    Data:
        Version: 3 (0x2)
        Serial Number: 3 (0x3)
        Signature Algorithm: md5WithRSAEncryption
        Issuer: C=AT, L=Vienna, O=BOFH Certs., CN=CERTS.bofh.priv.at/Email=certs@bofh.priv.at
        Validity
            Not Before: Apr  1 12:34:11 2004 GMT
            Not After : Apr  1 12:34:11 2005 GMT
        Subject: C=AT, ST=-, L=-, O=A mod_epp tester, OU=-, CN=epptelnet.pl
        Subject Public Key Info:
            Public Key Algorithm: rsaEncryption
            RSA Public Key: (1024 bit)
                Modulus (1024 bit):
                    00:d4:46:ca:ed:00:13:08:50:1b:08:45:a9:76:d6:
                    42:ab:ca:37:7b:e9:6c:35:bc:2f:52:07:a0:8d:5c:
                    f3:ae:b4:4f:ca:45:6c:ef:72:c5:72:d9:d8:79:30:
                    fa:03:1a:41:1a:27:e7:f1:8f:fe:85:34:fe:49:b4:
                    11:58:30:33:09:ac:b8:fd:6c:36:aa:47:c6:3c:28:
                    14:4c:c8:1a:ac:10:06:83:4c:f7:ea:f3:cc:82:ca:
                    35:0c:6b:b4:c0:aa:c0:3a:82:c0:63:9e:d6:d0:37:
                    f9:d3:da:60:07:ca:ce:4b:71:a6:0f:40:63:4b:60:
                    65:65:fe:a8:ca:8d:df:3f:db
                Exponent: 65537 (0x10001)
        X509v3 extensions:
            X509v3 Basic Constraints: 
                CA:FALSE
            Netscape Comment: 
                OpenSSL Generated Certificate
            X509v3 Subject Key Identifier: 
                E1:45:8D:91:21:C2:AF:BA:33:7A:7E:CB:36:1B:68:55:95:D6:BF:4D
            X509v3 Authority Key Identifier: 
                keyid:BD:F3:DA:76:99:B4:1E:19:99:C7:68:80:56:E9:90:4F:08:27:1B:67
                DirName:/C=AT/L=Vienna/O=BOFH Certs./CN=CERTS.bofh.priv.at/Email=certs@bofh.priv.at
                serial:00

    Signature Algorithm: md5WithRSAEncryption
        68:7e:c7:2a:ad:17:d5:1a:83:16:50:70:7e:71:f6:cc:c3:e5:
        5e:44:9d:70:78:4b:1a:98:87:12:69:0e:8e:00:64:b7:e3:38:
        dd:34:e2:87:67:c1:02:65:96:2b:cf:da:32:18:da:48:a0:eb:
        4f:90:27:4c:27:c6:ea:78:54:47:51:0d:3b:f7:ef:93:5c:e3:
        77:34:3d:7f:65:f8:38:80:dd:b7:9c:3c:91:7c:bc:93:48:1e:
        b2:7b:cb:d5:c0:ef:98:3e:01:01:be:10:9c:68:3e:cf:f2:c2:
        b2:e7:92:66:5a:b5:3d:00:87:d2:c7:5f:ee:72:10:f3:03:5f:
        c9:09
-----BEGIN CERTIFICATE-----
MIIDSjCCArOgAwIBAgIBAzANBgkqhkiG9w0BAQQFADB0MQswCQYDVQQGEwJBVDEP
MA0GA1UEBxMGVmllbm5hMRQwEgYDVQQKEwtCT0ZIIENlcnRzLjEbMBkGA1UEAxMS
Q0VSVFMuYm9maC5wcml2LmF0MSEwHwYJKoZIhvcNAQkBFhJjZXJ0c0Bib2ZoLnBy
aXYuYXQwHhcNMDQwNDAxMTIzNDExWhcNMDUwNDAxMTIzNDExWjBjMQswCQYDVQQG
EwJBVDEKMAgGA1UECBMBLTEKMAgGA1UEBxMBLTEZMBcGA1UEChQQQSBtb2RfZXBw
IHRlc3RlcjEKMAgGA1UECxMBLTEVMBMGA1UEAxMMZXBwdGVsbmV0LnBsMIGfMA0G
CSqGSIb3DQEBAQUAA4GNADCBiQKBgQDURsrtABMIUBsIRal21kKryjd76Ww1vC9S
B6CNXPOutE/KRWzvcsVy2dh5MPoDGkEaJ+fxj/6FNP5JtBFYMDMJrLj9bDaqR8Y8
KBRMyBqsEAaDTPfq88yCyjUMa7TAqsA6gsBjntbQN/nT2mAHys5LcaYPQGNLYGVl
/qjKjd8/2wIDAQABo4H8MIH5MAkGA1UdEwQCMAAwLAYJYIZIAYb4QgENBB8WHU9w
ZW5TU0wgR2VuZXJhdGVkIENlcnRpZmljYXRlMB0GA1UdDgQWBBThRY2RIcKvujN6
fss2G2hVlda/TTCBngYDVR0jBIGWMIGTgBS989p2mbQeGZnHaIBW6ZBPCCcbZ6F4
pHYwdDELMAkGA1UEBhMCQVQxDzANBgNVBAcTBlZpZW5uYTEUMBIGA1UEChMLQk9G
SCBDZXJ0cy4xGzAZBgNVBAMTEkNFUlRTLmJvZmgucHJpdi5hdDEhMB8GCSqGSIb3
DQEJARYSY2VydHNAYm9maC5wcml2LmF0ggEAMA0GCSqGSIb3DQEBBAUAA4GBAGh+
xyqtF9UagxZQcH5x9szD5V5EnXB4SxqYhxJpDo4AZLfjON004odnwQJllivP2jIY
2kig60+QJ0wnxup4VEdRDTv375Nc43c0PX9l+DiA3becPJF8vJNIHrJ7y9XA75g+
AQG+EJxoPs/ywrLnkmZatT0Ah9LHX+5yEPMDX8kJ
-----END CERTIFICATE-----
