Certificate:
    Data:
        Version: 3 (0x2)
        Serial Number: 2 (0x2)
        Signature Algorithm: md5WithRSAEncryption
        Issuer: C=AT, L=Vienna, O=NIC.at, CN=Otmar Lendl/Email=lendl@nic.at
        Validity
            Not Before: Dec  4 14:27:25 2002 GMT
            Not After : Dec  4 14:27:25 2003 GMT
        Subject: CN=Key for epptelnet.pl
        Subject Public Key Info:
            Public Key Algorithm: rsaEncryption
            RSA Public Key: (512 bit)
                Modulus (512 bit):
                    00:e8:a4:6c:7f:e7:51:35:c2:7f:59:5c:33:15:d1:
                    32:78:8b:0b:be:00:24:12:11:57:1c:e2:b3:c0:41:
                    86:59:21:ad:71:41:46:43:b5:c4:94:65:f1:b1:38:
                    71:07:5d:1d:f1:fa:9e:8d:ec:36:f7:ff:6b:3e:af:
                    73:cf:54:e3:a9
                Exponent: 65537 (0x10001)
        X509v3 extensions:
            X509v3 Basic Constraints: 
                CA:FALSE
            Netscape Comment: 
                OpenSSL Generated Certificate
            X509v3 Subject Key Identifier: 
                A8:53:E6:27:BF:C4:D7:C6:2B:9E:B5:56:E8:6E:40:3D:80:B0:40:BD
            X509v3 Authority Key Identifier: 
                keyid:AB:5B:05:47:9F:14:A9:0E:75:3B:65:7D:30:22:4B:2E:15:A2:BA:71
                DirName:/C=AT/L=Vienna/O=NIC.at/CN=Otmar Lendl/Email=lendl@nic.at
                serial:00

    Signature Algorithm: md5WithRSAEncryption
        02:f1:0d:b7:7e:44:cd:91:e6:61:4b:32:48:dc:eb:f8:40:91:
        2e:0b:0b:b8:d3:fe:c4:d9:9e:e4:9b:b1:16:93:c4:73:f8:ea:
        69:53:da:0b:e4:ad:e3:97:96:fd:1e:7e:ea:ae:fb:a6:48:ee:
        58:eb:15:b0:d1:57:fe:b4:98:fa:87:ab:a6:57:c2:ff:9d:b5:
        65:69:4b:09:de:b5:79:5e:a2:22:ea:b8:23:84:44:4b:56:c1:
        78:e8:6c:38:5e:2d:7c:7d:ae:83:95:ba:4a:3d:58:d6:f6:7c:
        a2:0b:ac:74:5c:28:41:fe:a8:c3:74:47:d3:cc:bd:f0:02:c8:
        ea:90
-----BEGIN CERTIFICATE-----
MIICnjCCAgegAwIBAgIBAjANBgkqhkiG9w0BAQQFADBiMQswCQYDVQQGEwJBVDEP
MA0GA1UEBxMGVmllbm5hMQ8wDQYDVQQKEwZOSUMuYXQxFDASBgNVBAMTC090bWFy
IExlbmRsMRswGQYJKoZIhvcNAQkBFgxsZW5kbEBuaWMuYXQwHhcNMDIxMjA0MTQy
NzI1WhcNMDMxMjA0MTQyNzI1WjAfMR0wGwYDVQQDExRLZXkgZm9yIGVwcHRlbG5l
dC5wbDBcMA0GCSqGSIb3DQEBAQUAA0sAMEgCQQDopGx/51E1wn9ZXDMV0TJ4iwu+
ACQSEVcc4rPAQYZZIa1xQUZDtcSUZfGxOHEHXR3x+p6N7Db3/2s+r3PPVOOpAgMB
AAGjgeowgecwCQYDVR0TBAIwADAsBglghkgBhvhCAQ0EHxYdT3BlblNTTCBHZW5l
cmF0ZWQgQ2VydGlmaWNhdGUwHQYDVR0OBBYEFKhT5ie/xNfGK561VuhuQD2AsEC9
MIGMBgNVHSMEgYQwgYGAFKtbBUefFKkOdTtlfTAiSy4VorpxoWakZDBiMQswCQYD
VQQGEwJBVDEPMA0GA1UEBxMGVmllbm5hMQ8wDQYDVQQKEwZOSUMuYXQxFDASBgNV
BAMTC090bWFyIExlbmRsMRswGQYJKoZIhvcNAQkBFgxsZW5kbEBuaWMuYXSCAQAw
DQYJKoZIhvcNAQEEBQADgYEAAvENt35EzZHmYUsySNzr+ECRLgsLuNP+xNme5Jux
FpPEc/jqaVPaC+St45eW/R5+6q77pkjuWOsVsNFX/rSY+oerplfC/521ZWlLCd61
eV6iIuq4I4RES1bBeOhsOF4tfH2ug5W6Sj1Y1vZ8ogusdFwoQf6ow3RH08y98ALI
6pA=
-----END CERTIFICATE-----
